; Function Attrs: null_pointer_is_valid sspstrong uwtable
define internal void @bssgp_flush_ll_ack(ptr noundef %0, ptr noundef %1, ptr noundef initializes((384, 388)) %2, i32 noundef %3, i32 noundef %4) #1 {
  %6 = getelementptr inbounds nuw i8, ptr %2, i64 384
  store i32 0, ptr %6, align 8
  %7 = icmp sgt i32 %4, 0
  br i1 %7, label %8, label %14

8:                                                ; preds = %5
  %9 = tail call zeroext i16 @elem_telv(ptr noundef %0, ptr noundef %1, ptr noundef %2, i8 noundef zeroext 31, i32 noundef 3, i32 noundef 68, i32 noundef %3, i32 noundef %4, ptr noundef null)
  %.not = icmp eq i16 %9, 0
  br i1 %.not, label %14, label %10

10:                                               ; preds = %8
  %11 = zext i16 %9 to i32
  %12 = add i32 %3, %11
  %13 = sub nsw i32 %4, %11
  br label %17

14:                                               ; preds = %8, %5
  %15 = tail call ptr @get_gsm_a_msg_string(i32 noundef 3, i32 noundef 68)
  %16 = tail call ptr (ptr, ptr, ptr, ptr, i32, i32, ptr, ...) @proto_tree_add_expert_format(ptr noundef %1, ptr noundef %2, ptr noundef nonnull @ei_bssgp_missing_mandatory_element, ptr noundef %0, i32 noundef %3, i32 noundef 0, ptr noundef nonnull @.str.6, i32 noundef 31, ptr noundef %15, ptr noundef nonnull @.str.7)
  br label %17

17:                                               ; preds = %14, %10
  %.072 = phi i32 [ %12, %10 ], [ %3, %14 ]
  %.0 = phi i32 [ %13, %10 ], [ %4, %14 ]
  %18 = icmp sgt i32 %.0, 0
  br i1 %18, label %19, label %25

19:                                               ; preds = %17
  %20 = tail call zeroext i16 @elem_telv(ptr noundef %0, ptr noundef %1, ptr noundef %2, i8 noundef zeroext 12, i32 noundef 13, i32 noundef 12, i32 noundef %.072, i32 noundef %.0, ptr noundef null)
  %.not83 = icmp eq i16 %20, 0
  br i1 %.not83, label %25, label %21

21:                                               ; preds = %19
  %22 = zext i16 %20 to i32
  %23 = add i32 %.072, %22
  %24 = sub nsw i32 %.0, %22
  br label %28

25:                                               ; preds = %19, %17
  %26 = tail call ptr @get_gsm_a_msg_string(i32 noundef 13, i32 noundef 12)
  %27 = tail call ptr (ptr, ptr, ptr, ptr, i32, i32, ptr, ...) @proto_tree_add_expert_format(ptr noundef %1, ptr noundef %2, ptr noundef nonnull @ei_bssgp_missing_mandatory_element, ptr noundef %0, i32 noundef %.072, i32 noundef 0, ptr noundef nonnull @.str.6, i32 noundef 12, ptr noundef %26, ptr noundef nonnull @.str.7)
  br label %28

28:                                               ; preds = %25, %21
  %.173 = phi i32 [ %23, %21 ], [ %.072, %25 ]
  %.1 = phi i32 [ %24, %21 ], [ %.0, %25 ]
  %29 = icmp slt i32 %.1, 1
  br i1 %29, label %54, label %30

30:                                               ; preds = %28
  %31 = tail call zeroext i16 @elem_telv(ptr noundef %0, ptr noundef %1, ptr noundef %2, i8 noundef zeroext 4, i32 noundef 13, i32 noundef 4, i32 noundef %.173, i32 noundef %.1, ptr noundef nonnull @.str.750)
  %32 = zext i16 %31 to i32
  %33 = add i32 %.173, %32
  %34 = sub nsw i32 %.1, %32
  %35 = icmp sgt i32 %34, 0
  br i1 %35, label %36, label %42

36:                                               ; preds = %30
  %37 = tail call zeroext i16 @elem_telv(ptr noundef %0, ptr noundef %1, ptr noundef %2, i8 noundef zeroext 37, i32 noundef 13, i32 noundef 37, i32 noundef %33, i32 noundef %34, ptr noundef null)
  %.not85 = icmp eq i16 %37, 0
  br i1 %.not85, label %42, label %38

38:                                               ; preds = %36
  %39 = zext i16 %37 to i32
  %40 = add i32 %33, %39
  %41 = sub nsw i32 %34, %39
  br label %45

42:                                               ; preds = %36, %30
  %43 = tail call ptr @get_gsm_a_msg_string(i32 noundef 13, i32 noundef 37)
  %44 = tail call ptr (ptr, ptr, ptr, ptr, i32, i32, ptr, ...) @proto_tree_add_expert_format(ptr noundef %1, ptr noundef %2, ptr noundef nonnull @ei_bssgp_missing_mandatory_element, ptr noundef %0, i32 noundef %33, i32 noundef 0, ptr noundef nonnull @.str.6, i32 noundef 37, ptr noundef %43, ptr noundef nonnull @.str.7)
  br label %45

45:                                               ; preds = %42, %38
  %.375 = phi i32 [ %40, %38 ], [ %33, %42 ]
  %.3 = phi i32 [ %41, %38 ], [ %34, %42 ]
  %46 = icmp slt i32 %.3, 1
  br i1 %46, label %54, label %47

47:                                               ; preds = %45
  %48 = tail call zeroext i16 @elem_telv(ptr noundef %0, ptr noundef %1, ptr noundef %2, i8 noundef zeroext 62, i32 noundef 3, i32 noundef 46, i32 noundef %.375, i32 noundef %.3, ptr noundef nonnull @.str.750)
  %49 = zext i16 %48 to i32
  %.not87 = icmp eq i32 %.3, %49
  br i1 %.not87, label %54, label %50

50:                                               ; preds = %47
  %51 = sub nsw i32 %.3, %49
  %52 = add i32 %.375, %49
  %53 = tail call ptr @proto_tree_add_expert(ptr noundef %1, ptr noundef %2, ptr noundef nonnull @ei_bssgp_extraneous_data, ptr noundef %0, i32 noundef %52, i32 noundef %51)
  br label %54

54:                                               ; preds = %47, %50, %45, %28
  ret void
}